; Function Attrs: mustprogress nounwind uwtable
define dso_local void @_ZNK4llvm10AsmPrinter23emitDwarfLengthOrOffsetEm(ptr noundef nonnull align 8 dereferenceable(785) %0, i64 noundef %1) local_unnamed_addr #0 align 2 {
  %3 = getelementptr inbounds nuw i8, ptr %0, i64 80
  %4 = load ptr, ptr %3, align 8
  %5 = tail call noundef i32 @_ZNK4llvm10AsmPrinter22getDwarfOffsetByteSizeEv(ptr noundef nonnull align 8 dereferenceable(785) %0) #6
  %6 = load ptr, ptr %4, align 8
  %7 = getelementptr inbounds i8, ptr %6, i64 520
  %8 = load ptr, ptr %7, align 8
  tail call void %8(ptr noundef nonnull align 8 dereferenceable(288) %4, i64 noundef %1, i32 noundef %5) #6
  ret void
}